target datalayout = "e-m:e-p270:32:32-p271:32:32-p272:64:64-i64:64-i128:128-f80:128-n8:16:32:64-S128"
target triple = "x86_64-pc-linux-gnu"

@.str.18 = private unnamed_addr constant [9 x i8] c"inode/%s\00", align 1
@.str.19 = private unnamed_addr constant [11 x i8] c"; charset=\00", align 1
@.str.20 = private unnamed_addr constant [7 x i8] c"binary\00", align 1

; Function Attrs: nounwind uwtable
define internal i32 @handle_mime(ptr noundef %0, i32 noundef %1, ptr noundef %2) #0 {
  %4 = alloca i32, align 4
  %5 = alloca ptr, align 8
  %6 = alloca i32, align 4
  %7 = alloca ptr, align 8
  store ptr %0, ptr %5, align 8
  store i32 %1, ptr %6, align 4
  store ptr %2, ptr %7, align 8
  %8 = load i32, ptr %6, align 4
  %9 = and i32 %8, 16
  %10 = icmp ne i32 %9, 0
  br i1 %10, label %11, label %27

11:                                               ; preds = %3
  %12 = load ptr, ptr %5, align 8
  %13 = load ptr, ptr %7, align 8
  %14 = call i32 (ptr, ptr, ...) @file_printf(ptr noundef %12, ptr noundef @.str.18, ptr noundef %13)
  %15 = icmp eq i32 %14, -1
  br i1 %15, label %16, label %17

16:                                               ; preds = %11
  store i32 -1, ptr %4, align 4
  br label %37

17:                                               ; preds = %11
  %18 = load i32, ptr %6, align 4
  %19 = and i32 %18, 1024
  %20 = icmp ne i32 %19, 0
  br i1 %20, label %21, label %26

21:                                               ; preds = %17
  %22 = load ptr, ptr %5, align 8
  %23 = call i32 (ptr, ptr, ...) @file_printf(ptr noundef %22, ptr noundef @.str.19)
  %24 = icmp eq i32 %23, -1
  br i1 %24, label %25, label %26

25:                                               ; preds = %21
  store i32 -1, ptr %4, align 4
  br label %37

26:                                               ; preds = %21, %17
  br label %27

27:                                               ; preds = %26, %3
  %28 = load i32, ptr %6, align 4
  %29 = and i32 %28, 1024
  %30 = icmp ne i32 %29, 0
  br i1 %30, label %31, label %36

31:                                               ; preds = %27
  %32 = load ptr, ptr %5, align 8
  %33 = call i32 (ptr, ptr, ...) @file_printf(ptr noundef %32, ptr noundef @.str.20)
  %34 = icmp eq i32 %33, -1
  br i1 %34, label %35, label %36

35:                                               ; preds = %31
  store i32 -1, ptr %4, align 4
  br label %37

36:                                               ; preds = %31, %27
  store i32 0, ptr %4, align 4
  br label %37

37:                                               ; preds = %36, %35, %25, %16
  %38 = load i32, ptr %4, align 4
  ret i32 %38
}