; Function Attrs: nounwind uwtable
define internal fastcc noundef i32 @handle_mime(ptr noundef %0, i32 noundef %1, ptr noundef %2) unnamed_addr #0 {
  %4 = and i32 %1, 16
  %.not = icmp eq i32 %4, 0
  br i1 %.not, label %13, label %5

5:                                                ; preds = %3
  %6 = tail call i32 (ptr, ptr, ...) @file_printf(ptr noundef %0, ptr noundef nonnull @.str.18, ptr noundef %2) #5
  %7 = icmp eq i32 %6, -1
  br i1 %7, label %17, label %8

8:                                                ; preds = %5
  %9 = and i32 %1, 1024
  %.not7 = icmp eq i32 %9, 0
  br i1 %.not7, label %.thread, label %10

10:                                               ; preds = %8
  %11 = tail call i32 (ptr, ptr, ...) @file_printf(ptr noundef %0, ptr noundef nonnull @.str.19) #5
  %12 = icmp eq i32 %11, -1
  br i1 %12, label %17, label %.thread10

13:                                               ; preds = %3
  %.pre = and i32 %1, 1024
  %14 = icmp eq i32 %.pre, 0
  br i1 %14, label %.thread, label %.thread10

.thread10:                                        ; preds = %10, %13
  %15 = tail call i32 (ptr, ptr, ...) @file_printf(ptr noundef %0, ptr noundef nonnull @.str.20) #5
  %16 = icmp eq i32 %15, -1
  br i1 %16, label %17, label %.thread

.thread:                                          ; preds = %8, %.thread10, %13
  br label %17

17:                                               ; preds = %.thread10, %10, %5, %.thread
  %.0 = phi i32 [ 0, %.thread ], [ -1, %5 ], [ -1, %10 ], [ -1, %.thread10 ]
  ret i32 %.0
}